(iFunctions
Student
p0
(dp1
S'student_issue'
p2
S'no'
p3
sS'student_grade'
p4
S'12'
p5
sS'student_house'
p6
S'LEO'
p7
sS'student_bookno'
p8
S'None'
p9
sS'student_name'
p10
S'ABID ALI'
p11
sS'student_no'
p12
S'1234'
p13
sS'student_section'
p14
S'M'
p15
sb.(iFunctions
Student
p0
(dp1
S'student_issue'
p2
S'no'
p3
sS'student_grade'
p4
S'12'
p5
sS'student_house'
p6
S'AQUARIOUS'
p7
sS'student_bookno'
p8
S'None'
p9
sS'student_name'
p10
S'ADIL  ARIF'
p11
sS'student_no'
p12
S'1235'
p13
sS'student_section'
p14
S'M'
p15
sb.(iFunctions
Student
p0
(dp1
S'student_issue'
p2
S'yes'
p3
sS'student_grade'
p4
S'12'
p5
sS'student_house'
p6
S'ARIES'
p7
sS'student_bookno'
p8
S'1236'
p9
sS'student_name'
p10
S'AJAYKRISHNAN  MUKUNDAN'
p11
sS'student_no'
p12
S'1236'
p13
sS'student_section'
p14
S'M'
p15
sb.(iFunctions
Student
p0
(dp1
S'student_issue'
p2
S'no'
p3
sS'student_grade'
p4
S'12'
p5
sS'student_house'
p6
S'ARIES'
p7
sS'student_bookno'
p8
S'None'
p9
sS'student_name'
p10
S'AKSHAYE PRADEEP  KUMAR'
p11
sS'student_no'
p12
S'1237'
p13
sS'student_section'
p14
S'M'
p15
sb.(iFunctions
Student
p0
(dp1
S'student_issue'
p2
S'no'
p3
sS'student_grade'
p4
S'12'
p5
sS'student_house'
p6
S'TAURAUS'
p7
sS'student_bookno'
p8
S'None'
p9
sS'student_name'
p10
S'ASHISH MATHEW  PHILIP'
p11
sS'student_no'
p12
S'1238'
p13
sS'student_section'
p14
S'M'
p15
sb.(iFunctions
Student
p0
(dp1
S'student_issue'
p2
S'no'
p3
sS'student_grade'
p4
S'12'
p5
sS'student_house'
p6
S'ARIES'
p7
sS'student_bookno'
p8
S'None'
p9
sS'student_name'
p10
S'ASHISH SURAJ  BHAN'
p11
sS'student_no'
p12
S'1239'
p13
sS'student_section'
p14
S'M'
p15
sb.(iFunctions
Student
p0
(dp1
S'student_issue'
p2
S'no'
p3
sS'student_grade'
p4
S'12'
p5
sS'student_house'
p6
S'LEO'
p7
sS'student_bookno'
p8
S'None'
p9
sS'student_name'
p10
S'AVINASH ESAKKIAPPAN'
p11
sS'student_no'
p12
S'1240'
p13
sS'student_section'
p14
S'M'
p15
sb.(iFunctions
Student
p0
(dp1
S'student_issue'
p2
S'no'
p3
sS'student_grade'
p4
S'12'
p5
sS'student_house'
p6
S'ARIES'
p7
sS'student_bookno'
p8
S'None'
p9
sS'student_name'
p10
S'AYAZ  EBRAHIM NAJEEB'
p11
sS'student_no'
p12
S'1241'
p13
sS'student_section'
p14
S'M'
p15
sb.(iFunctions
Student
p0
(dp1
S'student_issue'
p2
S'no'
p3
sS'student_grade'
p4
S'12'
p5
sS'student_house'
p6
S'TAURAUS'
p7
sS'student_bookno'
p8
S'None'
p9
sS'student_name'
p10
S'BHARAT  SIVAN'
p11
sS'student_no'
p12
S'1242'
p13
sS'student_section'
p14
S'M'
p15
sb.(iFunctions
Student
p0
(dp1
S'student_issue'
p2
S'no'
p3
sS'student_grade'
p4
S'12'
p5
sS'student_house'
p6
S'LEO'
p7
sS'student_bookno'
p8
S'None'
p9
sS'student_name'
p10
S'GEEVAN GIGI  MATHEW'
p11
sS'student_no'
p12
S'1243'
p13
sS'student_section'
p14
S'M'
p15
sb.(iFunctions
Student
p0
(dp1
S'student_issue'
p2
S'yes'
p3
sS'student_grade'
p4
S'12'
p5
sS'student_house'
p6
S'AQUARIOUS'
p7
sS'student_bookno'
p8
S'1244'
p9
sS'student_name'
p10
S'KEVIN  THOMAS'
p11
sS'student_no'
p12
S'1244'
p13
sS'student_section'
p14
S'M'
p15
sb.(iFunctions
Student
p0
(dp1
S'student_issue'
p2
S'yes'
p3
sS'student_grade'
p4
S'12'
p5
sS'student_house'
p6
S'ARIES'
p7
sS'student_bookno'
p8
S'1245'
p9
sS'student_name'
p10
S'MEBIN JOHNSON'
p11
sS'student_no'
p12
S'1245'
p13
sS'student_section'
p14
S'M'
p15
sb.(iFunctions
Student
p0
(dp1
S'student_issue'
p2
S'no'
p3
sS'student_grade'
p4
S'12'
p5
sS'student_house'
p6
S'ARIES'
p7
sS'student_bookno'
p8
S'None'
p9
sS'student_name'
p10
S'MICHAEL ANTONY  VIKRAM'
p11
sS'student_no'
p12
S'1246'
p13
sS'student_section'
p14
S'M'
p15
sb.(iFunctions
Student
p0
(dp1
S'student_issue'
p2
S'yes'
p3
sS'student_grade'
p4
S'12'
p5
sS'student_house'
p6
S'TAURAUS'
p7
sS'student_bookno'
p8
S'1247'
p9
sS'student_name'
p10
S'MOHAMED FADI  ISMAIL'
p11
sS'student_no'
p12
S'1247'
p13
sS'student_section'
p14
S'M'
p15
sb.(iFunctions
Student
p0
(dp1
S'student_issue'
p2
S'no'
p3
sS'student_grade'
p4
S'12'
p5
sS'student_house'
p6
S'AQUARIOUS'
p7
sS'student_bookno'
p8
S'None'
p9
sS'student_name'
p10
S'MOHIT  PRADEEP GUPTA'
p11
sS'student_no'
p12
S'1248'
p13
sS'student_section'
p14
S'M'
p15
sb.(iFunctions
Student
p0
(dp1
S'student_issue'
p2
S'no'
p3
sS'student_grade'
p4
S'12'
p5
sS'student_house'
p6
S'LEO'
p7
sS'student_bookno'
p8
S'None'
p9
sS'student_name'
p10
S'MUHAMMED HAARIS SAJID HUSSAIN'
p11
sS'student_no'
p12
S'1249'
p13
sS'student_section'
p14
S'M'
p15
sb.(iFunctions
Student
p0
(dp1
S'student_issue'
p2
S'no'
p3
sS'student_grade'
p4
S'12'
p5
sS'student_house'
p6
S'ARIES'
p7
sS'student_bookno'
p8
S'None'
p9
sS'student_name'
p10
S'NAZIL CHANNANATH  ANWAR'
p11
sS'student_no'
p12
S'1250'
p13
sS'student_section'
p14
S'M'
p15
sb.(iFunctions
Student
p0
(dp1
S'student_issue'
p2
S'no'
p3
sS'student_grade'
p4
S'12'
p5
sS'student_house'
p6
S'AQUARIOUS'
p7
sS'student_bookno'
p8
S'None'
p9
sS'student_name'
p10
S'NIGAL  PAUL'
p11
sS'student_no'
p12
S'1251'
p13
sS'student_section'
p14
S'M'
p15
sb.(iFunctions
Student
p0
(dp1
S'student_issue'
p2
S'no'
p3
sS'student_grade'
p4
S'12'
p5
sS'student_house'
p6
S'ARIES'
p7
sS'student_bookno'
p8
S'None'
p9
sS'student_name'
p10
S'NOEL  JOHNSON'
p11
sS'student_no'
p12
S'1252'
p13
sS'student_section'
p14
S'M'
p15
sb.(iFunctions
Student
p0
(dp1
S'student_issue'
p2
S'no'
p3
sS'student_grade'
p4
S'12'
p5
sS'student_house'
p6
S'LEO'
p7
sS'student_bookno'
p8
S'None'
p9
sS'student_name'
p10
S'RAUNAK VIVEK SATPUTE'
p11
sS'student_no'
p12
S'1253'
p13
sS'student_section'
p14
S'M'
p15
sb.(iFunctions
Student
p0
(dp1
S'student_issue'
p2
S'no'
p3
sS'student_grade'
p4
S'12'
p5
sS'student_house'
p6
S'AQUARIOUS'
p7
sS'student_bookno'
p8
S'None'
p9
sS'student_name'
p10
S'RESHAB  RETHEESH ELENCHERI'
p11
sS'student_no'
p12
S'1254'
p13
sS'student_section'
p14
S'M'
p15
sb.(iFunctions
Student
p0
(dp1
S'student_issue'
p2
S'no'
p3
sS'student_grade'
p4
S'12'
p5
sS'student_house'
p6
S'ARIES'
p7
sS'student_bookno'
p8
S'None'
p9
sS'student_name'
p10
S'ROGIN CHERIAN  REGI'
p11
sS'student_no'
p12
S'1255'
p13
sS'student_section'
p14
S'M'
p15
sb.(iFunctions
Student
p0
(dp1
S'student_issue'
p2
S'yes'
p3
sS'student_grade'
p4
S'12'
p5
sS'student_house'
p6
S'ARIES'
p7
sS'student_bookno'
p8
S'1256'
p9
sS'student_name'
p10
S'SABHAL  BILS'
p11
sS'student_no'
p12
S'1256'
p13
sS'student_section'
p14
S'M'
p15
sb.(iFunctions
Student
p0
(dp1
S'student_issue'
p2
S'yes'
p3
sS'student_grade'
p4
S'12'
p5
sS'student_house'
p6
S'TAURAUS'
p7
sS'student_bookno'
p8
S'1257'
p9
sS'student_name'
p10
S'SACHIN SABU'
p11
sS'student_no'
p12
S'1257'
p13
sS'student_section'
p14
S'C'
p15
sb.(iFunctions
Student
p0
(dp1
S'student_issue'
p2
S'no'
p3
sS'student_grade'
p4
S'12'
p5
sS'student_house'
p6
S'ARIES'
p7
sS'student_bookno'
p8
S'None'
p9
sS'student_name'
p10
S'SARATH CHANDRA SURYADEVARA'
p11
sS'student_no'
p12
S'1258'
p13
sS'student_section'
p14
S'M'
p15
sb.(iFunctions
Student
p0
(dp1
S'student_issue'
p2
S'yes'
p3
sS'student_grade'
p4
S'12'
p5
sS'student_house'
p6
S'LEO'
p7
sS'student_bookno'
p8
S'1259'
p9
sS'student_name'
p10
S'SHAMVIL KALATHIL VADAKKAYIL'
p11
sS'student_no'
p12
S'1259'
p13
sS'student_section'
p14
S'M'
p15
sb.(iFunctions
Student
p0
(dp1
S'student_issue'
p2
S'no'
p3
sS'student_grade'
p4
S'12'
p5
sS'student_house'
p6
S'ARIES'
p7
sS'student_bookno'
p8
S'None'
p9
sS'student_name'
p10
S'SHARUKH  SALIM'
p11
sS'student_no'
p12
S'1260'
p13
sS'student_section'
p14
S'M'
p15
sb.(iFunctions
Student
p0
(dp1
S'student_issue'
p2
S'no'
p3
sS'student_grade'
p4
S'12'
p5
sS'student_house'
p6
S'TAURAUS'
p7
sS'student_bookno'
p8
S'None'
p9
sS'student_name'
p10
S'SHAZLI OMAR  FAZAL'
p11
sS'student_no'
p12
S'1261'
p13
sS'student_section'
p14
S'M'
p15
sb.(iFunctions
Student
p0
(dp1
S'student_issue'
p2
S'no'
p3
sS'student_grade'
p4
S'12'
p5
sS'student_house'
p6
S'LEO'
p7
sS'student_bookno'
p8
S'None'
p9
sS'student_name'
p10
S'SIDDHARTH SAJAN  GEORGE'
p11
sS'student_no'
p12
S'1262'
p13
sS'student_section'
p14
S'M'
p15
sb.(iFunctions
Student
p0
(dp1
S'student_issue'
p2
S'yes'
p3
sS'student_grade'
p4
S'12'
p5
sS'student_house'
p6
S'AQUARIOUS'
p7
sS'student_bookno'
p8
S'1263'
p9
sS'student_name'
p10
S'SREEKANTH MANOHARAN   KAKKADATH'
p11
sS'student_no'
p12
S'1263'
p13
sS'student_section'
p14
S'M'
p15
sb.(iFunctions
Student
p0
(dp1
S'student_issue'
p2
S'no'
p3
sS'student_grade'
p4
S'12'
p5
sS'student_house'
p6
S'ARIES'
p7
sS'student_bookno'
p8
S'None'
p9
sS'student_name'
p10
S'STEVE PAUL'
p11
sS'student_no'
p12
S'1264'
p13
sS'student_section'
p14
S'M'
p15
sb.(iFunctions
Student
p0
(dp1
S'student_issue'
p2
S'no'
p3
sS'student_grade'
p4
S'12'
p5
sS'student_house'
p6
S'ARIES'
p7
sS'student_bookno'
p8
S'None'
p9
sS'student_name'
p10
S'VISHNU V.  NAIR'
p11
sS'student_no'
p12
S'1265'
p13
sS'student_section'
p14
S'M'
p15
sb.(iFunctions
Student
p0
(dp1
S'student_issue'
p2
S'no'
p3
sS'student_grade'
p4
S'12'
p5
sS'student_house'
p6
S'TAURAUS'
p7
sS'student_bookno'
p8
S'None'
p9
sS'student_name'
p10
S'YOUSUF SAEED  KHAN'
p11
sS'student_no'
p12
S'1266'
p13
sS'student_section'
p14
S'M'
p15
sb.(iFunctions
Student
p0
(dp1
S'student_issue'
p2
S'no'
p3
sS'student_grade'
p4
S'12'
p5
sS'student_house'
p6
S'AQUARIOUS'
p7
sS'student_bookno'
p8
S'None'
p9
sS'student_name'
p10
S'ABDULLA SADIQ RIZWAN'
p11
sS'student_no'
p12
S'1267'
p13
sS'student_section'
p14
S'N'
p15
sb.(iFunctions
Student
p0
(dp1
S'student_issue'
p2
S'yes'
p3
sS'student_grade'
p4
S'12'
p5
sS'student_house'
p6
S'LEO'
p7
sS'student_bookno'
p8
S'1268'
p9
sS'student_name'
p10
S'ABEL VARGHESE  DUKE'
p11
sS'student_no'
p12
S'1268'
p13
sS'student_section'
p14
S'N'
p15
sb.(iFunctions
Student
p0
(dp1
S'student_issue'
p2
S'no'
p3
sS'student_grade'
p4
S'12'
p5
sS'student_house'
p6
S'ARIES'
p7
sS'student_bookno'
p8
S'None'
p9
sS'student_name'
p10
S'ADNAN KABEER   PUZHANGARA'
p11
sS'student_no'
p12
S'1269'
p13
sS'student_section'
p14
S'N'
p15
sb.(iFunctions
Student
p0
(dp1
S'student_issue'
p2
S'no'
p3
sS'student_grade'
p4
S'12'
p5
sS'student_house'
p6
S'AQUARIOUS'
p7
sS'student_bookno'
p8
S'None'
p9
sS'student_name'
p10
S'AITERBARKHAN KAIUMKHAN  PATHAN'
p11
sS'student_no'
p12
S'1270'
p13
sS'student_section'
p14
S'N'
p15
sb.(iFunctions
Student
p0
(dp1
S'student_issue'
p2
S'no'
p3
sS'student_grade'
p4
S'12'
p5
sS'student_house'
p6
S'ARIES'
p7
sS'student_bookno'
p8
S'None'
p9
sS'student_name'
p10
S'ALI  ASGAR'
p11
sS'student_no'
p12
S'1271'
p13
sS'student_section'
p14
S'N'
p15
sb.(iFunctions
Student
p0
(dp1
S'student_issue'
p2
S'no'
p3
sS'student_grade'
p4
S'12'
p5
sS'student_house'
p6
S'LEO'
p7
sS'student_bookno'
p8
S'None'
p9
sS'student_name'
p10
S'ANANDU CHAMI  SASEENDRAN'
p11
sS'student_no'
p12
S'1272'
p13
sS'student_section'
p14
S'N'
p15
sb.(iFunctions
Student
p0
(dp1
S'student_issue'
p2
S'no'
p3
sS'student_grade'
p4
S'12'
p5
sS'student_house'
p6
S'AQUARIOUS'
p7
sS'student_bookno'
p8
S'None'
p9
sS'student_name'
p10
S'ANVAR  SHAH'
p11
sS'student_no'
p12
S'1273'
p13
sS'student_section'
p14
S'N'
p15
sb.(iFunctions
Student
p0
(dp1
S'student_issue'
p2
S'no'
p3
sS'student_grade'
p4
S'12'
p5
sS'student_house'
p6
S'ARIES'
p7
sS'student_bookno'
p8
S'None'
p9
sS'student_name'
p10
S'ANVIN VINOD  MATHEWS'
p11
sS'student_no'
p12
S'1274'
p13
sS'student_section'
p14
S'N'
p15
sb.(iFunctions
Student
p0
(dp1
S'student_issue'
p2
S'no'
p3
sS'student_grade'
p4
S'12'
p5
sS'student_house'
p6
S'ARIES'
p7
sS'student_bookno'
p8
S'None'
p9
sS'student_name'
p10
S'ASHEN THIWANKA H'
p11
sS'student_no'
p12
S'1275'
p13
sS'student_section'
p14
S'N'
p15
sb.(iFunctions
Student
p0
(dp1
S'student_issue'
p2
S'no'
p3
sS'student_grade'
p4
S'12'
p5
sS'student_house'
p6
S'TAURAUS'
p7
sS'student_bookno'
p8
S'None'
p9
sS'student_name'
p10
S'ASHWIN  VIJAY'
p11
sS'student_no'
p12
S'1276'
p13
sS'student_section'
p14
S'N'
p15
sb.(iFunctions
Student
p0
(dp1
S'student_issue'
p2
S'no'
p3
sS'student_grade'
p4
S'12'
p5
sS'student_house'
p6
S'ARIES'
p7
sS'student_bookno'
p8
S'None'
p9
sS'student_name'
p10
S'AWAIZE WALI'
p11
sS'student_no'
p12
S'1277'
p13
sS'student_section'
p14
S'N'
p15
sb.(iFunctions
Student
p0
(dp1
S'student_issue'
p2
S'no'
p3
sS'student_grade'
p4
S'12'
p5
sS'student_house'
p6
S'LEO'
p7
sS'student_bookno'
p8
S'None'
p9
sS'student_name'
p10
S'BASIL HANEEF'
p11
sS'student_no'
p12
S'1278'
p13
sS'student_section'
p14
S'N'
p15
sb.(iFunctions
Student
p0
(dp1
S'student_issue'
p2
S'no'
p3
sS'student_grade'
p4
S'12'
p5
sS'student_house'
p6
S'ARIES'
p7
sS'student_bookno'
p8
S'None'
p9
sS'student_name'
p10
S'CHHELAVADA YASH   JITENDRA'
p11
sS'student_no'
p12
S'1279'
p13
sS'student_section'
p14
S'N'
p15
sb.(iFunctions
Student
p0
(dp1
S'student_issue'
p2
S'no'
p3
sS'student_grade'
p4
S'12'
p5
sS'student_house'
p6
S'TAURAUS'
p7
sS'student_bookno'
p8
S'None'
p9
sS'student_name'
p10
S'GAVIN DANNY ALLEN'
p11
sS'student_no'
p12
S'1280'
p13
sS'student_section'
p14
S'N'
p15
sb.(iFunctions
Student
p0
(dp1
S'student_issue'
p2
S'no'
p3
sS'student_grade'
p4
S'12'
p5
sS'student_house'
p6
S'LEO'
p7
sS'student_bookno'
p8
S'None'
p9
sS'student_name'
p10
S'HASHER  HAMZA'
p11
sS'student_no'
p12
S'1281'
p13
sS'student_section'
p14
S'N'
p15
sb.(iFunctions
Student
p0
(dp1
S'student_issue'
p2
S'no'
p3
sS'student_grade'
p4
S'12'
p5
sS'student_house'
p6
S'AQUARIOUS'
p7
sS'student_bookno'
p8
S'None'
p9
sS'student_name'
p10
S'HAZIL HARIS  MELEKANDY'
p11
sS'student_no'
p12
S'1282'
p13
sS'student_section'
p14
S'N'
p15
sb.(iFunctions
Student
p0
(dp1
S'student_issue'
p2
S'no'
p3
sS'student_grade'
p4
S'12'
p5
sS'student_house'
p6
S'ARIES'
p7
sS'student_bookno'
p8
S'None'
p9
sS'student_name'
p10
S'ILIYASALI  CHENGARATHODI'
p11
sS'student_no'
p12
S'1283'
p13
sS'student_section'
p14
S'N'
p15
sb.(iFunctions
Student
p0
(dp1
S'student_issue'
p2
S'no'
p3
sS'student_grade'
p4
S'12'
p5
sS'student_house'
p6
S'ARIES'
p7
sS'student_bookno'
p8
S'None'
p9
sS'student_name'
p10
S'JESTIN MANI JOSEPH'
p11
sS'student_no'
p12
S'1284'
p13
sS'student_section'
p14
S'N'
p15
sb.(iFunctions
Student
p0
(dp1
S'student_issue'
p2
S'no'
p3
sS'student_grade'
p4
S'12'
p5
sS'student_house'
p6
S'TAURAUS'
p7
sS'student_bookno'
p8
S'None'
p9
sS'student_name'
p10
S'JIBIN  BIJU'
p11
sS'student_no'
p12
S'1285'
p13
sS'student_section'
p14
S'N'
p15
sb.(iFunctions
Student
p0
(dp1
S'student_issue'
p2
S'no'
p3
sS'student_grade'
p4
S'12'
p5
sS'student_house'
p6
S'AQUARIOUS'
p7
sS'student_bookno'
p8
S'None'
p9
sS'student_name'
p10
S'JOEL  DAVID'
p11
sS'student_no'
p12
S'1286'
p13
sS'student_section'
p14
S'N'
p15
sb.(iFunctions
Student
p0
(dp1
S'student_issue'
p2
S'no'
p3
sS'student_grade'
p4
S'12'
p5
sS'student_house'
p6
S'LEO'
p7
sS'student_bookno'
p8
S'None'
p9
sS'student_name'
p10
S'JOSEPH  RAYSON VARELA'
p11
sS'student_no'
p12
S'1287'
p13
sS'student_section'
p14
S'N'
p15
sb.(iFunctions
Student
p0
(dp1
S'student_issue'
p2
S'no'
p3
sS'student_grade'
p4
S'12'
p5
sS'student_house'
p6
S'ARIES'
p7
sS'student_bookno'
p8
S'None'
p9
sS'student_name'
p10
S'KARTHIK  KULANDAIVEL'
p11
sS'student_no'
p12
S'1288'
p13
sS'student_section'
p14
S'N'
p15
sb.(iFunctions
Student
p0
(dp1
S'student_issue'
p2
S'no'
p3
sS'student_grade'
p4
S'12'
p5
sS'student_house'
p6
S'AQUARIOUS'
p7
sS'student_bookno'
p8
S'None'
p9
sS'student_name'
p10
S'MATHEN MATHEW  CHERIAN'
p11
sS'student_no'
p12
S'1289'
p13
sS'student_section'
p14
S'N'
p15
sb.(iFunctions
Student
p0
(dp1
S'student_issue'
p2
S'no'
p3
sS'student_grade'
p4
S'12'
p5
sS'student_house'
p6
S'ARIES'
p7
sS'student_bookno'
p8
S'None'
p9
sS'student_name'
p10
S'MUFFAZZAL MOIZ   ALI SAIFY'
p11
sS'student_no'
p12
S'1290'
p13
sS'student_section'
p14
S'N'
p15
sb.(iFunctions
Student
p0
(dp1
S'student_issue'
p2
S'no'
p3
sS'student_grade'
p4
S'12'
p5
sS'student_house'
p6
S'LEO'
p7
sS'student_bookno'
p8
S'None'
p9
sS'student_name'
p10
S'MUHAMMAD ATIQ  RASHEED'
p11
sS'student_no'
p12
S'1291'
p13
sS'student_section'
p14
S'N'
p15
sb.(iFunctions
Student
p0
(dp1
S'student_issue'
p2
S'no'
p3
sS'student_grade'
p4
S'12'
p5
sS'student_house'
p6
S'AQUARIOUS'
p7
sS'student_bookno'
p8
S'None'
p9
sS'student_name'
p10
S'MUHAMMED FARHAN  PONNANKAI'
p11
sS'student_no'
p12
S'1292'
p13
sS'student_section'
p14
S'N'
p15
sb.(iFunctions
Student
p0
(dp1
S'student_issue'
p2
S'no'
p3
sS'student_grade'
p4
S'12'
p5
sS'student_house'
p6
S'ARIES'
p7
sS'student_bookno'
p8
S'None'
p9
sS'student_name'
p10
S'MUHIYUDDEEN MUHAMMAD  ASHHAR'
p11
sS'student_no'
p12
S'1293'
p13
sS'student_section'
p14
S'N'
p15
sb.(iFunctions
Student
p0
(dp1
S'student_issue'
p2
S'no'
p3
sS'student_grade'
p4
S'12'
p5
sS'student_house'
p6
S'ARIES'
p7
sS'student_bookno'
p8
S'None'
p9
sS'student_name'
p10
S'NEHAD  ANVAR'
p11
sS'student_no'
p12
S'1294'
p13
sS'student_section'
p14
S'N'
p15
sb.(iFunctions
Student
p0
(dp1
S'student_issue'
p2
S'no'
p3
sS'student_grade'
p4
S'12'
p5
sS'student_house'
p6
S'TAURAUS'
p7
sS'student_bookno'
p8
S'None'
p9
sS'student_name'
p10
S'NIBRAS MOHAMMED AZEEM'
p11
sS'student_no'
p12
S'1295'
p13
sS'student_section'
p14
S'N'
p15
sb.(iFunctions
Student
p0
(dp1
S'student_issue'
p2
S'no'
p3
sS'student_grade'
p4
S'12'
p5
sS'student_house'
p6
S'ARIES'
p7
sS'student_bookno'
p8
S'None'
p9
sS'student_name'
p10
S'NILAV SUDHIR  NAIR'
p11
sS'student_no'
p12
S'1296'
p13
sS'student_section'
p14
S'N'
p15
sb.(iFunctions
Student
p0
(dp1
S'student_issue'
p2
S'no'
p3
sS'student_grade'
p4
S'12'
p5
sS'student_house'
p6
S'LEO'
p7
sS'student_bookno'
p8
S'None'
p9
sS'student_name'
p10
S'ROHIT PLAMKOOTTATHIL  MATHEWS'
p11
sS'student_no'
p12
S'1297'
p13
sS'student_section'
p14
S'N'
p15
sb.(iFunctions
Student
p0
(dp1
S'student_issue'
p2
S'no'
p3
sS'student_grade'
p4
S'12'
p5
sS'student_house'
p6
S'ARIES'
p7
sS'student_bookno'
p8
S'None'
p9
sS'student_name'
p10
S'ROY  ANTONY'
p11
sS'student_no'
p12
S'1298'
p13
sS'student_section'
p14
S'N'
p15
sb.(iFunctions
Student
p0
(dp1
S'student_issue'
p2
S'no'
p3
sS'student_grade'
p4
S'12'
p5
sS'student_house'
p6
S'TAURAUS'
p7
sS'student_bookno'
p8
S'None'
p9
sS'student_name'
p10
S'RUBEN JOHNSON  KOSHY'
p11
sS'student_no'
p12
S'1299'
p13
sS'student_section'
p14
S'N'
p15
sb.(iFunctions
Student
p0
(dp1
S'student_issue'
p2
S'no'
p3
sS'student_grade'
p4
S'12'
p5
sS'student_house'
p6
S'LEO'
p7
sS'student_bookno'
p8
S'None'
p9
sS'student_name'
p10
S'SAINUL ABID'
p11
sS'student_no'
p12
S'1300'
p13
sS'student_section'
p14
S'N'
p15
sb.(iFunctions
Student
p0
(dp1
S'student_issue'
p2
S'no'
p3
sS'student_grade'
p4
S'12'
p5
sS'student_house'
p6
S'AQUARIOUS'
p7
sS'student_bookno'
p8
S'None'
p9
sS'student_name'
p10
S'SHAN ABRAHAM KURIAN'
p11
sS'student_no'
p12
S'1301'
p13
sS'student_section'
p14
S'N'
p15
sb.(iFunctions
Student
p0
(dp1
S'student_issue'
p2
S'no'
p3
sS'student_grade'
p4
S'12'
p5
sS'student_house'
p6
S'ARIES'
p7
sS'student_bookno'
p8
S'None'
p9
sS'student_name'
p10
S'SHARATH RAMAN  KAYAN'
p11
sS'student_no'
p12
S'1302'
p13
sS'student_section'
p14
S'N'
p15
sb.(iFunctions
Student
p0
(dp1
S'student_issue'
p2
S'no'
p3
sS'student_grade'
p4
S'12'
p5
sS'student_house'
p6
S'ARIES'
p7
sS'student_bookno'
p8
S'None'
p9
sS'student_name'
p10
S'SHELDON  JOHN THOMAS'
p11
sS'student_no'
p12
S'1303'
p13
sS'student_section'
p14
S'N'
p15
sb.(iFunctions
Student
p0
(dp1
S'student_issue'
p2
S'no'
p3
sS'student_grade'
p4
S'12'
p5
sS'student_house'
p6
S'TAURAUS'
p7
sS'student_bookno'
p8
S'None'
p9
sS'student_name'
p10
S'SHERMAN  FERNANDES'
p11
sS'student_no'
p12
S'1304'
p13
sS'student_section'
p14
S'N'
p15
sb.(iFunctions
Student
p0
(dp1
S'student_issue'
p2
S'no'
p3
sS'student_grade'
p4
S'12'
p5
sS'student_house'
p6
S'AQUARIOUS'
p7
sS'student_bookno'
p8
S'None'
p9
sS'student_name'
p10
S'VISHAL  NARAYAN'
p11
sS'student_no'
p12
S'1305'
p13
sS'student_section'
p14
S'N'
p15
sb.(iFunctions
Student
p0
(dp1
S'student_issue'
p2
S'no'
p3
sS'student_grade'
p4
S'11'
p5
sS'student_house'
p6
S'LEO'
p7
sS'student_bookno'
p8
S'None'
p9
sS'student_name'
p10
S'KEVIN ANIL'
p11
sS'student_no'
p12
S'1306'
p13
sS'student_section'
p14
S'M'
p15
sb.(iFunctions
Student
p0
(dp1
S'student_issue'
p2
S'no'
p3
sS'student_grade'
p4
S'10'
p5
sS'student_house'
p6
S'ARIES'
p7
sS'student_bookno'
p8
S'None'
p9
sS'student_name'
p10
S'ABDULLA SHAHEER'
p11
sS'student_no'
p12
S'1307'
p13
sS'student_section'
p14
S'O'
p15
sb.(iFunctions
Student
p0
(dp1
S'student_issue'
p2
S'no'
p3
sS'student_grade'
p4
S'10'
p5
sS'student_house'
p6
S'AQUARIOUS'
p7
sS'student_bookno'
p8
S'None'
p9
sS'student_name'
p10
S'ADHIL MANNARTHODI'
p11
sS'student_no'
p12
S'1308'
p13
sS'student_section'
p14
S'O'
p15
sb.(iFunctions
Student
p0
(dp1
S'student_issue'
p2
S'no'
p3
sS'student_grade'
p4
S'10'
p5
sS'student_house'
p6
S'ARIES'
p7
sS'student_bookno'
p8
S'None'
p9
sS'student_name'
p10
S'ALAN THAMPI   VARGHESE'
p11
sS'student_no'
p12
S'1309'
p13
sS'student_section'
p14
S'O'
p15
sb.(iFunctions
Student
p0
(dp1
S'student_issue'
p2
S'no'
p3
sS'student_grade'
p4
S'10'
p5
sS'student_house'
p6
S'LEO'
p7
sS'student_bookno'
p8
S'None'
p9
sS'student_name'
p10
S'AMITH  RAMESH'
p11
sS'student_no'
p12
S'1310'
p13
sS'student_section'
p14
S'O'
p15
sb.(iFunctions
Student
p0
(dp1
S'student_issue'
p2
S'no'
p3
sS'student_grade'
p4
S'10'
p5
sS'student_house'
p6
S'AQUARIOUS'
p7
sS'student_bookno'
p8
S'None'
p9
sS'student_name'
p10
S'ANIRUDHASINH  PRADYUMANSINH RANA'
p11
sS'student_no'
p12
S'1311'
p13
sS'student_section'
p14
S'O'
p15
sb.(iFunctions
Student
p0
(dp1
S'student_issue'
p2
S'no'
p3
sS'student_grade'
p4
S'10'
p5
sS'student_house'
p6
S'ARIES'
p7
sS'student_bookno'
p8
S'None'
p9
sS'student_name'
p10
S'AQEEL  RASHEED'
p11
sS'student_no'
p12
S'1312'
p13
sS'student_section'
p14
S'O'
p15
sb.(iFunctions
Student
p0
(dp1
S'student_issue'
p2
S'no'
p3
sS'student_grade'
p4
S'10'
p5
sS'student_house'
p6
S'ARIES'
p7
sS'student_bookno'
p8
S'None'
p9
sS'student_name'
p10
S'ARJUN  GUPTA'
p11
sS'student_no'
p12
S'1313'
p13
sS'student_section'
p14
S'O'
p15
sb.(iFunctions
Student
p0
(dp1
S'student_issue'
p2
S'no'
p3
sS'student_grade'
p4
S'10'
p5
sS'student_house'
p6
S'TAURAUS'
p7
sS'student_bookno'
p8
S'None'
p9
sS'student_name'
p10
S'ASHIN NAZEEM MOHAMED'
p11
sS'student_no'
p12
S'1314'
p13
sS'student_section'
p14
S'O'
p15
sb.(iFunctions
Student
p0
(dp1
S'student_issue'
p2
S'no'
p3
sS'student_grade'
p4
S'10'
p5
sS'student_house'
p6
S'ARIES'
p7
sS'student_bookno'
p8
S'None'
p9
sS'student_name'
p10
S'ASHISH KUMBLASSERIL SHAJI'
p11
sS'student_no'
p12
S'1315'
p13
sS'student_section'
p14
S'O'
p15
sb.(iFunctions
Student
p0
(dp1
S'student_issue'
p2
S'no'
p3
sS'student_grade'
p4
S'10'
p5
sS'student_house'
p6
S'LEO'
p7
sS'student_bookno'
p8
S'None'
p9
sS'student_name'
p10
S'ASHLIN GAVIN BANGERA'
p11
sS'student_no'
p12
S'1316'
p13
sS'student_section'
p14
S'O'
p15
sb.(iFunctions
Student
p0
(dp1
S'student_issue'
p2
S'no'
p3
sS'student_grade'
p4
S'10'
p5
sS'student_house'
p6
S'ARIES'
p7
sS'student_bookno'
p8
S'None'
p9
sS'student_name'
p10
S'DERIK  LYTTEN'
p11
sS'student_no'
p12
S'1317'
p13
sS'student_section'
p14
S'O'
p15
sb.(iFunctions
Student
p0
(dp1
S'student_issue'
p2
S'no'
p3
sS'student_grade'
p4
S'10'
p5
sS'student_house'
p6
S'TAURAUS'
p7
sS'student_bookno'
p8
S'None'
p9
sS'student_name'
p10
S'JEROM MATHEW JOSEPH'
p11
sS'student_no'
p12
S'1318'
p13
sS'student_section'
p14
S'O'
p15
sb.(iFunctions
Student
p0
(dp1
S'student_issue'
p2
S'no'
p3
sS'student_grade'
p4
S'10'
p5
sS'student_house'
p6
S'LEO'
p7
sS'student_bookno'
p8
S'None'
p9
sS'student_name'
p10
S'JERRY  RAJU'
p11
sS'student_no'
p12
S'1319'
p13
sS'student_section'
p14
S'O'
p15
sb.(iFunctions
Student
p0
(dp1
S'student_issue'
p2
S'no'
p3
sS'student_grade'
p4
S'10'
p5
sS'student_house'
p6
S'AQUARIOUS'
p7
sS'student_bookno'
p8
S'None'
p9
sS'student_name'
p10
S'JETSON  JOSEPH'
p11
sS'student_no'
p12
S'1320'
p13
sS'student_section'
p14
S'O'
p15
sb.(iFunctions
Student
p0
(dp1
S'student_issue'
p2
S'no'
p3
sS'student_grade'
p4
S'10'
p5
sS'student_house'
p6
S'ARIES'
p7
sS'student_bookno'
p8
S'None'
p9
sS'student_name'
p10
S'JOHN THOMAS KANDATHIL'
p11
sS'student_no'
p12
S'1321'
p13
sS'student_section'
p14
S'O'
p15
sb.(iFunctions
Student
p0
(dp1
S'student_issue'
p2
S'no'
p3
sS'student_grade'
p4
S'10'
p5
sS'student_house'
p6
S'ARIES'
p7
sS'student_bookno'
p8
S'None'
p9
sS'student_name'
p10
S'MOHAMED  SHAAZ'
p11
sS'student_no'
p12
S'1322'
p13
sS'student_section'
p14
S'O'
p15
sb.(iFunctions
Student
p0
(dp1
S'student_issue'
p2
S'no'
p3
sS'student_grade'
p4
S'10'
p5
sS'student_house'
p6
S'TAURAUS'
p7
sS'student_bookno'
p8
S'None'
p9
sS'student_name'
p10
S'MOHAMMED  FAHAD'
p11
sS'student_no'
p12
S'1323'
p13
sS'student_section'
p14
S'O'
p15
sb.(iFunctions
Student
p0
(dp1
S'student_issue'
p2
S'no'
p3
sS'student_grade'
p4
S'10'
p5
sS'student_house'
p6
S'AQUARIOUS'
p7
sS'student_bookno'
p8
S'None'
p9
sS'student_name'
p10
S'MONISH  SATISH URKOLIL'
p11
sS'student_no'
p12
S'1324'
p13
sS'student_section'
p14
S'O'
p15
sb.(iFunctions
Student
p0
(dp1
S'student_issue'
p2
S'no'
p3
sS'student_grade'
p4
S'10'
p5
sS'student_house'
p6
S'LEO'
p7
sS'student_bookno'
p8
S'None'
p9
sS'student_name'
p10
S'MUHAMMED ABDUL AZEEZ CHANGAROOTH'
p11
sS'student_no'
p12
S'1325'
p13
sS'student_section'
p14
S'O'
p15
sb.(iFunctions
Student
p0
(dp1
S'student_issue'
p2
S'no'
p3
sS'student_grade'
p4
S'10'
p5
sS'student_house'
p6
S'ARIES'
p7
sS'student_bookno'
p8
S'None'
p9
sS'student_name'
p10
S'NEVIN JOE NINAN'
p11
sS'student_no'
p12
S'1326'
p13
sS'student_section'
p14
S'O'
p15
sb.(iFunctions
Student
p0
(dp1
S'student_issue'
p2
S'no'
p3
sS'student_grade'
p4
S'10'
p5
sS'student_house'
p6
S'AQUARIOUS'
p7
sS'student_bookno'
p8
S'None'
p9
sS'student_name'
p10
S'NIDHIN RAJAGOPALAN'
p11
sS'student_no'
p12
S'1327'
p13
sS'student_section'
p14
S'O'
p15
sb.(iFunctions
Student
p0
(dp1
S'student_issue'
p2
S'no'
p3
sS'student_grade'
p4
S'10'
p5
sS'student_house'
p6
S'ARIES'
p7
sS'student_bookno'
p8
S'None'
p9
sS'student_name'
p10
S'NIHAL  RAFEEK'
p11
sS'student_no'
p12
S'1328'
p13
sS'student_section'
p14
S'O'
p15
sb.(iFunctions
Student
p0
(dp1
S'student_issue'
p2
S'no'
p3
sS'student_grade'
p4
S'10'
p5
sS'student_house'
p6
S'LEO'
p7
sS'student_bookno'
p8
S'None'
p9
sS'student_name'
p10
S'RITHWIK RAJESH  MENON'
p11
sS'student_no'
p12
S'1329'
p13
sS'student_section'
p14
S'O'
p15
sb.(iFunctions
Student
p0
(dp1
S'student_issue'
p2
S'no'
p3
sS'student_grade'
p4
S'10'
p5
sS'student_house'
p6
S'AQUARIOUS'
p7
sS'student_bookno'
p8
S'None'
p9
sS'student_name'
p10
S'SAAB SOMHOON  AFRIDI'
p11
sS'student_no'
p12
S'1330'
p13
sS'student_section'
p14
S'O'
p15
sb.(iFunctions
Student
p0
(dp1
S'student_issue'
p2
S'no'
p3
sS'student_grade'
p4
S'10'
p5
sS'student_house'
p6
S'ARIES'
p7
sS'student_bookno'
p8
S'None'
p9
sS'student_name'
p10
S'SIDHARTH  UNNIKRISHNAN'
p11
sS'student_no'
p12
S'1331'
p13
sS'student_section'
p14
S'O'
p15
sb.(iFunctions
Student
p0
(dp1
S'student_issue'
p2
S'no'
p3
sS'student_grade'
p4
S'10'
p5
sS'student_house'
p6
S'ARIES'
p7
sS'student_bookno'
p8
S'None'
p9
sS'student_name'
p10
S'SOURAV  KUMAR'
p11
sS'student_no'
p12
S'1332'
p13
sS'student_section'
p14
S'O'
p15
sb.(iFunctions
Student
p0
(dp1
S'student_issue'
p2
S'no'
p3
sS'student_grade'
p4
S'10'
p5
sS'student_house'
p6
S'TAURAUS'
p7
sS'student_bookno'
p8
S'None'
p9
sS'student_name'
p10
S'THEJUS MILAN JYOTHI'
p11
sS'student_no'
p12
S'1333'
p13
sS'student_section'
p14
S'O'
p15
sb.(iFunctions
Student
p0
(dp1
S'student_issue'
p2
S'no'
p3
sS'student_grade'
p4
S'10'
p5
sS'student_house'
p6
S'ARIES'
p7
sS'student_bookno'
p8
S'None'
p9
sS'student_name'
p10
S'TONY  JOY'
p11
sS'student_no'
p12
S'1334'
p13
sS'student_section'
p14
S'O'
p15
sb.(iFunctions
Student
p0
(dp1
S'student_issue'
p2
S'no'
p3
sS'student_grade'
p4
S'10'
p5
sS'student_house'
p6
S'LEO'
p7
sS'student_bookno'
p8
S'None'
p9
sS'student_name'
p10
S'VALIYAPARAMBIL SUDHEER AMAL'
p11
sS'student_no'
p12
S'1335'
p13
sS'student_section'
p14
S'O'
p15
sb.(iFunctions
Student
p0
(dp1
S'student_issue'
p2
S'no'
p3
sS'student_grade'
p4
S'10'
p5
sS'student_house'
p6
S'ARIES'
p7
sS'student_bookno'
p8
S'None'
p9
sS'student_name'
p10
S'VIEKESH  VENKATASUBRAMANIAN'
p11
sS'student_no'
p12
S'1336'
p13
sS'student_section'
p14
S'O'
p15
sb.(iFunctions
Student
p0
(dp1
S'student_issue'
p2
S'no'
p3
sS'student_grade'
p4
S'10'
p5
sS'student_house'
p6
S'TAURAUS'
p7
sS'student_bookno'
p8
S'None'
p9
sS'student_name'
p10
S'VIPINRAJ KALATHUMKAL'
p11
sS'student_no'
p12
S'1337'
p13
sS'student_section'
p14
S'O'
p15
sb.